; Function Attrs: nounwind uwtable
define void @_ZThn16_N24DecorateRasterProjPluginD0Ev(ptr noundef %0) unnamed_addr #12 align 2 {
  %2 = getelementptr inbounds i8, ptr %0, i64 -16
  tail call void @_ZN24DecorateRasterProjPluginD2Ev(ptr noundef nonnull align 8 dereferenceable(440) %2, ptr noundef nonnull @_ZTT24DecorateRasterProjPlugin) #23
  %3 = getelementptr inbounds i8, ptr %0, i64 424
  store ptr getelementptr inbounds ({ [7 x ptr] }, ptr @_ZTV13MeshLabPlugin, i64 0, i32 0, i64 2), ptr %3, align 8
  %4 = getelementptr inbounds i8, ptr %0, i64 440
  tail call void @_ZN9QFileInfoD1Ev(ptr noundef nonnull align 8 dereferenceable(8) %4) #23
  tail call void @_ZdlPv(ptr noundef nonnull %2) #22
  ret void
}